target datalayout = "e-m:e-p270:32:32-p271:32:32-p272:64:64-i64:64-i128:128-f80:128-n8:16:32:64-S128"
target triple = "x86_64-pc-linux-gnu"

%struct._packet_info = type { ptr, ptr, i32, i32, %struct.nstime_t, %struct.nstime_t, %struct.nstime_t, i8, ptr, ptr, ptr, ptr, %struct._address, %struct._address, %struct._address, %struct._address, %struct._address, %struct._address, i32, ptr, i8, [3 x i8], %struct.anon, i32, i32, i32, i32, ptr, i8, ptr, ptr, i16, i16, i32, i32, i16, i32, i32, ptr, ptr, ptr, i8, i8, i16, i16, i16, i32, i16, i16, ptr, ptr, ptr, ptr, ptr, i32, i32 }
%struct.nstime_t = type { i64, i32 }
%struct._address = type { i32, i32, ptr, ptr }
%struct.anon = type { i8, [3 x i8] }

@hf_mip6_opt_ss_identifier = internal global i32 0, align 4
@ett_mip6_opt_ssm = internal global i32 0, align 4
@proto_mip6_option_ssm = internal global i32 0, align 4
@.str.755 = private unnamed_addr constant [5 x i8] c": %s\00", align 1

; Function Attrs: null_pointer_is_valid sspstrong uwtable
define internal i32 @dissect_mip6_opt_ssm(ptr noundef %0, ptr noundef %1, ptr noundef %2, ptr noundef %3) #0 {
  %5 = alloca ptr, align 8
  %6 = alloca ptr, align 8
  %7 = alloca ptr, align 8
  %8 = alloca ptr, align 8
  %9 = alloca ptr, align 8
  %10 = alloca ptr, align 8
  %11 = alloca i32, align 4
  %12 = alloca i32, align 4
  %13 = alloca ptr, align 8
  %14 = alloca i32, align 4
  store ptr %0, ptr %5, align 8
  store ptr %1, ptr %6, align 8
  store ptr %2, ptr %7, align 8
  store ptr %3, ptr %8, align 8
  call void @llvm.lifetime.start.p0(i64 8, ptr %9) #6
  call void @llvm.lifetime.start.p0(i64 8, ptr %10) #6
  call void @llvm.lifetime.start.p0(i64 4, ptr %11) #6
  %15 = load ptr, ptr %5, align 8
  %16 = call i32 @tvb_reported_length(ptr noundef %15)
  %17 = sub i32 %16, 2
  store i32 %17, ptr %11, align 4
  call void @llvm.lifetime.start.p0(i64 4, ptr %12) #6
  store i32 2, ptr %12, align 4
  call void @llvm.lifetime.start.p0(i64 8, ptr %13) #6
  store ptr null, ptr %13, align 8
  call void @llvm.lifetime.start.p0(i64 4, ptr %14) #6
  %18 = load ptr, ptr %7, align 8
  %19 = load ptr, ptr %6, align 8
  %20 = load ptr, ptr %5, align 8
  %21 = load i32, ptr @proto_mip6_option_ssm, align 4
  %22 = load i32, ptr @ett_mip6_opt_ssm, align 4
  %23 = load i32, ptr %11, align 4
  %24 = call ptr @mip6_var_option_header(ptr noundef %18, ptr noundef %19, ptr noundef %20, i32 noundef %21, i32 noundef %22, ptr noundef %10, i32 noundef %23, i32 noundef 1)
  store ptr %24, ptr %9, align 8
  %25 = load i32, ptr %11, align 4
  %26 = icmp sgt i32 %25, 0
  br i1 %26, label %27, label %58

27:                                               ; preds = %4
  %28 = load ptr, ptr %5, align 8
  %29 = load i32, ptr %12, align 4
  %30 = call zeroext i8 @tvb_get_uint8(ptr noundef %28, i32 noundef %29)
  %31 = zext i8 %30 to i32
  store i32 %31, ptr %14, align 4
  %32 = load i32, ptr %14, align 4
  %33 = icmp slt i32 %32, 32
  br i1 %33, label %34, label %42

34:                                               ; preds = %27
  %35 = load ptr, ptr %6, align 8
  %36 = getelementptr inbounds nuw %struct._packet_info, ptr %35, i32 0, i32 51
  %37 = load ptr, ptr %36, align 8
  %38 = load ptr, ptr %5, align 8
  %39 = load i32, ptr %12, align 4
  %40 = load i32, ptr %11, align 4
  %41 = call ptr @tvb_get_string_enc(ptr noundef %37, ptr noundef %38, i32 noundef %39, i32 noundef %40, i32 noundef 84)
  store ptr %41, ptr %13, align 8
  br label %50

42:                                               ; preds = %27
  %43 = load ptr, ptr %6, align 8
  %44 = getelementptr inbounds nuw %struct._packet_info, ptr %43, i32 0, i32 51
  %45 = load ptr, ptr %44, align 8
  %46 = load ptr, ptr %5, align 8
  %47 = load i32, ptr %12, align 4
  %48 = load i32, ptr %11, align 4
  %49 = call ptr @tvb_get_string_enc(ptr noundef %45, ptr noundef %46, i32 noundef %47, i32 noundef %48, i32 noundef 2)
  store ptr %49, ptr %13, align 8
  br label %50

50:                                               ; preds = %42, %34
  %51 = load ptr, ptr %9, align 8
  %52 = load i32, ptr @hf_mip6_opt_ss_identifier, align 4
  %53 = load ptr, ptr %5, align 8
  %54 = load i32, ptr %12, align 4
  %55 = load i32, ptr %11, align 4
  %56 = load ptr, ptr %13, align 8
  %57 = call ptr @proto_tree_add_string(ptr noundef %51, i32 noundef %52, ptr noundef %53, i32 noundef %54, i32 noundef %55, ptr noundef %56)
  br label %58

58:                                               ; preds = %50, %4
  %59 = load ptr, ptr %13, align 8
  %60 = icmp ne ptr %59, null
  br i1 %60, label %61, label %64

61:                                               ; preds = %58
  %62 = load ptr, ptr %10, align 8
  %63 = load ptr, ptr %13, align 8
  call void (ptr, ptr, ...) @proto_item_append_text(ptr noundef %62, ptr noundef @.str.755, ptr noundef %63)
  br label %64

64:                                               ; preds = %61, %58
  %65 = load ptr, ptr %5, align 8
  %66 = call i32 @tvb_captured_length(ptr noundef %65)
  call void @llvm.lifetime.end.p0(i64 4, ptr %14) #6
  call void @llvm.lifetime.end.p0(i64 8, ptr %13) #6
  call void @llvm.lifetime.end.p0(i64 4, ptr %12) #6
  call void @llvm.lifetime.end.p0(i64 4, ptr %11) #6
  call void @llvm.lifetime.end.p0(i64 8, ptr %10) #6
  call void @llvm.lifetime.end.p0(i64 8, ptr %9) #6
  ret i32 %66
}