; Function Attrs: null_pointer_is_valid sspstrong uwtable
define internal i32 @dissect_mip6_opt_ssm(ptr noundef %0, ptr noundef %1, ptr noundef %2, ptr readnone captures(none) %3) #0 {
  %5 = alloca ptr, align 8
  call void @llvm.lifetime.start.p0(i64 8, ptr nonnull %5) #5
  %6 = tail call i32 @tvb_reported_length(ptr noundef %0)
  %7 = add i32 %6, -2
  %8 = load i32, ptr @proto_mip6_option_ssm, align 4
  %9 = load i32, ptr @ett_mip6_opt_ssm, align 4
  %10 = call fastcc ptr @mip6_var_option_header(ptr noundef %2, ptr noundef %1, ptr noundef %0, i32 noundef %8, i32 noundef %9, ptr noundef nonnull %5, i32 noundef %7, i32 noundef 1)
  %11 = icmp sgt i32 %7, 0
  br i1 %11, label %12, label %.thread

12:                                               ; preds = %4
  %13 = tail call zeroext i8 @tvb_get_uint8(ptr noundef %0, i32 noundef 2)
  %14 = icmp ult i8 %13, 32
  %15 = getelementptr inbounds nuw i8, ptr %1, i64 408
  %16 = load ptr, ptr %15, align 8
  %. = select i1 %14, i32 84, i32 2
  %17 = tail call ptr @tvb_get_string_enc(ptr noundef %16, ptr noundef %0, i32 noundef 2, i32 noundef %7, i32 noundef %.)
  %18 = load i32, ptr @hf_mip6_opt_ss_identifier, align 4
  %19 = tail call ptr @proto_tree_add_string(ptr noundef %10, i32 noundef %18, ptr noundef %0, i32 noundef 2, i32 noundef %7, ptr noundef %17)
  %.not = icmp eq ptr %17, null
  br i1 %.not, label %.thread, label %20

20:                                               ; preds = %12
  %21 = load ptr, ptr %5, align 8
  tail call void (ptr, ptr, ...) @proto_item_append_text(ptr noundef %21, ptr noundef nonnull @.str.755, ptr noundef nonnull %17)
  br label %.thread

.thread:                                          ; preds = %4, %20, %12
  %22 = tail call i32 @tvb_captured_length(ptr noundef %0)
  call void @llvm.lifetime.end.p0(i64 8, ptr nonnull %5) #5
  ret i32 %22
}